target datalayout = "e-m:e-p270:32:32-p271:32:32-p272:64:64-i64:64-i128:128-f80:128-n8:16:32:64-S128"
target triple = "x86_64-pc-linux-gnu"

%struct.slurm_conf_t = type { i64, ptr, i16, ptr, ptr, ptr, ptr, ptr, i16, ptr, ptr, ptr, ptr, ptr, ptr, ptr, i16, ptr, ptr, ptr, ptr, i16, ptr, ptr, ptr, i64, ptr, ptr, ptr, ptr, i16, ptr, ptr, i16, i32, ptr, i32, ptr, i32, i32, ptr, ptr, i64, i64, ptr, i16, i16, ptr, i32, i32, ptr, i32, ptr, i32, i16, i16, i16, ptr, i16, i16, ptr, ptr, i32, i16, i16, ptr, i32, i16, ptr, ptr, ptr, ptr, i16, ptr, ptr, ptr, ptr, i32, ptr, ptr, ptr, ptr, i16, i16, ptr, i32, i32, i32, i16, i16, ptr, ptr, i16, ptr, ptr, i32, i32, i32, i32, i32, i64, i32, i32, i16, ptr, ptr, i32, ptr, ptr, ptr, i16, i32, ptr, ptr, i16, ptr, ptr, i32, i16, ptr, ptr, ptr, ptr, i32, i32, i16, i16, i32, ptr, i16, ptr, i32, i32, i32, i32, i32, i32, ptr, i16, ptr, ptr, i32, i16, ptr, i32, i16, i16, ptr, ptr, ptr, i16, ptr, ptr, ptr, ptr, i16, i16, ptr, i16, ptr, i16, ptr, i16, ptr, i16, ptr, ptr, ptr, ptr, i16, ptr, ptr, ptr, i32, ptr, i32, ptr, ptr, i16, ptr, ptr, i32, i16, ptr, ptr, i16, i16, ptr, i16, ptr, ptr, ptr, i32, ptr, i16, i16, ptr, ptr, ptr, ptr, ptr, ptr, ptr, ptr, i16, i32, i16, ptr, ptr, ptr, ptr, i32, ptr, ptr, ptr, i16, ptr, ptr, ptr, i16, ptr, i16, ptr, i16, i16, ptr }
%struct.job_record = type { i32, ptr, ptr, ptr, ptr, i16, i32, i32, i32, ptr, i32, ptr, ptr, i16, ptr, double, i64, ptr, ptr, ptr, ptr, ptr, ptr, i32, ptr, i32, i64, i64, i32, i32, ptr, i16, i64, i64, i8, i32, ptr, ptr, ptr, ptr, ptr, ptr, ptr, ptr, i32, ptr, ptr, i32, ptr, i32, ptr, i32, ptr, i32, ptr, ptr, ptr, ptr, ptr, ptr, i32, i16, i64, ptr, ptr, ptr, ptr, %struct.acct_policy_limit_set_t, i16, ptr, ptr, ptr, ptr, ptr, i32, ptr, ptr, ptr, ptr, ptr, i32, i32, ptr, ptr, ptr, i16, ptr, ptr, i8, ptr, ptr, i64, i64, i8, i32, i32, i8, i32, ptr, i32, i64, i32, ptr, ptr, ptr, i8, i16, i64, i32, ptr, ptr, ptr, ptr, ptr, i16, i32, ptr, ptr, ptr, ptr, i32, ptr, i32, i16, i64, ptr, i32, i32, ptr, i64, ptr, ptr, i64, i32, i32, i64, i32, i32, ptr, ptr, ptr, ptr, ptr, ptr, ptr, ptr, ptr, ptr, ptr, ptr, i32, ptr, i16, i16, i16, i16, ptr, i32, i32, i8, i64 }
%struct.acct_policy_limit_set_t = type { i16, i16, ptr }
%struct.job_descriptor = type { ptr, ptr, ptr, ptr, i16, i32, i32, ptr, ptr, ptr, ptr, i64, i64, ptr, ptr, ptr, ptr, i16, ptr, ptr, i16, ptr, i16, i32, i32, i32, ptr, ptr, i64, i32, ptr, i64, ptr, %struct.slurm_hash_t, i32, ptr, ptr, ptr, i64, i64, i32, i32, ptr, i16, i32, ptr, ptr, i16, ptr, ptr, i16, ptr, ptr, ptr, i16, ptr, ptr, ptr, i32, i32, i16, i8, ptr, i16, i8, ptr, i16, ptr, i32, i32, ptr, i16, ptr, i16, ptr, i16, ptr, i16, ptr, ptr, %struct.slurm_hash_t, i16, i32, ptr, i32, ptr, i32, i32, i32, ptr, ptr, ptr, ptr, ptr, ptr, i32, i16, i16, i16, i16, ptr, i16, i32, i32, i32, i32, i16, i16, i16, i16, i16, i16, i16, i16, i16, i16, i16, i64, i32, ptr, i32, i16, ptr, ptr, ptr, ptr, ptr, i32, ptr, i16, ptr, ptr, i16 }
%struct.slurm_hash_t = type { i8, [32 x i8] }

@slurm_conf = external global %struct.slurm_conf_t, align 8
@_enable_stepmgr.first_time = internal global i8 1, align 1
@_enable_stepmgr.stepmgr_enabled = internal global i8 0, align 1
@.str.418 = private unnamed_addr constant [15 x i8] c"enable_stepmgr\00", align 1
@.str.419 = private unnamed_addr constant [51 x i8] c"STEP_MGR not supported without PrologFlags=contain\00", align 1

; Function Attrs: nounwind uwtable
define internal void @_enable_stepmgr(ptr noundef %0, ptr noundef %1) #0 {
  %3 = alloca ptr, align 8
  %4 = alloca ptr, align 8
  store ptr %0, ptr %3, align 8
  store ptr %1, ptr %4, align 8
  %5 = load i8, ptr @_enable_stepmgr.first_time, align 1, !range !8, !noundef !9
  %6 = trunc i8 %5 to i1
  br i1 %6, label %7, label %12

7:                                                ; preds = %2
  store i8 0, ptr @_enable_stepmgr.first_time, align 1
  %8 = load ptr, ptr getelementptr inbounds nuw (%struct.slurm_conf_t, ptr @slurm_conf, i32 0, i32 187), align 8
  %9 = call ptr @xstrstr(ptr noundef %8, ptr noundef @.str.418)
  %10 = icmp ne ptr %9, null
  %11 = zext i1 %10 to i8
  store i8 %11, ptr @_enable_stepmgr.stepmgr_enabled, align 1
  br label %12

12:                                               ; preds = %7, %2
  %13 = load i8, ptr @_enable_stepmgr.stepmgr_enabled, align 1, !range !8, !noundef !9
  %14 = trunc i8 %13 to i1
  br i1 %14, label %21, label %15

15:                                               ; preds = %12
  %16 = load ptr, ptr %4, align 8
  %17 = getelementptr inbounds nuw %struct.job_descriptor, ptr %16, i32 0, i32 12
  %18 = load i64, ptr %17, align 8
  %19 = and i64 %18, 2199023255552
  %20 = icmp ne i64 %19, 0
  br i1 %20, label %21, label %37

21:                                               ; preds = %15, %12
  %22 = load ptr, ptr %4, align 8
  %23 = getelementptr inbounds nuw %struct.job_descriptor, ptr %22, i32 0, i32 41
  %24 = load i32, ptr %23, align 4
  %25 = icmp eq i32 %24, -2
  br i1 %25, label %26, label %37

26:                                               ; preds = %21
  %27 = load ptr, ptr %3, align 8
  %28 = getelementptr inbounds nuw %struct.job_record, ptr %27, i32 0, i32 123
  %29 = load i16, ptr %28, align 4
  %30 = zext i16 %29 to i32
  %31 = icmp sge i32 %30, 10496
  br i1 %31, label %32, label %37

32:                                               ; preds = %26
  %33 = load ptr, ptr %3, align 8
  %34 = getelementptr inbounds nuw %struct.job_record, ptr %33, i32 0, i32 16
  %35 = load i64, ptr %34, align 8
  %36 = or i64 %35, 2199023255552
  store i64 %36, ptr %34, align 8
  br label %42

37:                                               ; preds = %26, %21, %15
  %38 = load ptr, ptr %3, align 8
  %39 = getelementptr inbounds nuw %struct.job_record, ptr %38, i32 0, i32 16
  %40 = load i64, ptr %39, align 8
  %41 = and i64 %40, -2199023255553
  store i64 %41, ptr %39, align 8
  br label %42

42:                                               ; preds = %37, %32
  %43 = load ptr, ptr %3, align 8
  %44 = getelementptr inbounds nuw %struct.job_record, ptr %43, i32 0, i32 16
  %45 = load i64, ptr %44, align 8
  %46 = and i64 %45, 2199023255552
  %47 = icmp ne i64 %46, 0
  br i1 %47, label %48, label %59

48:                                               ; preds = %42
  %49 = load i16, ptr getelementptr inbounds nuw (%struct.slurm_conf_t, ptr @slurm_conf, i32 0, i32 146), align 2
  %50 = zext i16 %49 to i32
  %51 = and i32 %50, 4
  %52 = icmp ne i32 %51, 0
  br i1 %52, label %59, label %53

53:                                               ; preds = %48
  %54 = call i32 (ptr, ...) @error(ptr noundef @.str.419)
  %55 = load ptr, ptr %3, align 8
  %56 = getelementptr inbounds nuw %struct.job_record, ptr %55, i32 0, i32 16
  %57 = load i64, ptr %56, align 8
  %58 = and i64 %57, -2199023255553
  store i64 %58, ptr %56, align 8
  br label %59

59:                                               ; preds = %53, %48, %42
  ret void
}