; Function Attrs: nounwind uwtable
define internal fastcc void @_enable_stepmgr(ptr noundef captures(none) %0, ptr noundef readonly captures(none) %1) unnamed_addr #0 {
  %.b = load i1, ptr @_enable_stepmgr.first_time, align 1
  br i1 %.b, label %._crit_edge, label %4

._crit_edge:                                      ; preds = %2
  %.pre = load i8, ptr @_enable_stepmgr.stepmgr_enabled, align 1, !range !11
  %3 = trunc nuw i8 %.pre to i1
  br i1 %3, label %13, label %9

4:                                                ; preds = %2
  store i1 true, ptr @_enable_stepmgr.first_time, align 1
  %5 = load ptr, ptr getelementptr inbounds nuw (i8, ptr @slurm_conf, i64 1248), align 8
  %6 = tail call ptr @xstrstr(ptr noundef %5, ptr noundef nonnull @.str.418) #27
  %7 = icmp ne ptr %6, null
  %8 = zext i1 %7 to i8
  store i8 %8, ptr @_enable_stepmgr.stepmgr_enabled, align 1
  br i1 %7, label %13, label %9

9:                                                ; preds = %._crit_edge, %4
  %10 = getelementptr inbounds nuw i8, ptr %1, i64 88
  %11 = load i64, ptr %10, align 8
  %12 = and i64 %11, 2199023255552
  %.not = icmp eq i64 %12, 0
  br i1 %.not, label %.thread, label %13

13:                                               ; preds = %._crit_edge, %9, %4
  %14 = getelementptr inbounds nuw i8, ptr %1, i64 324
  %15 = load i32, ptr %14, align 4
  %16 = icmp eq i32 %15, -2
  br i1 %16, label %17, label %.thread

17:                                               ; preds = %13
  %18 = getelementptr inbounds nuw i8, ptr %0, i64 908
  %19 = load i16, ptr %18, align 4
  %20 = icmp ugt i16 %19, 10495
  br i1 %20, label %24, label %.thread

.thread:                                          ; preds = %9, %13, %17
  %21 = getelementptr inbounds nuw i8, ptr %0, i64 112
  %22 = load i64, ptr %21, align 8
  %23 = and i64 %22, -2199023255553
  store i64 %23, ptr %21, align 8
  br label %35

24:                                               ; preds = %17
  %25 = getelementptr inbounds nuw i8, ptr %0, i64 112
  %26 = load i64, ptr %25, align 8
  %27 = or i64 %26, 2199023255552
  store i64 %27, ptr %25, align 8
  %28 = load i16, ptr getelementptr inbounds nuw (i8, ptr @slurm_conf, i64 950), align 2
  %29 = and i16 %28, 4
  %.not8 = icmp eq i16 %29, 0
  br i1 %.not8, label %30, label %35

30:                                               ; preds = %24
  %31 = getelementptr inbounds nuw i8, ptr %0, i64 112
  %32 = tail call i32 (ptr, ...) @error(ptr noundef nonnull @.str.419) #27
  %33 = load i64, ptr %31, align 8
  %34 = and i64 %33, -2199023255553
  store i64 %34, ptr %31, align 8
  br label %35

35:                                               ; preds = %.thread, %30, %24
  ret void
}